target datalayout = "e-m:e-p270:32:32-p271:32:32-p272:64:64-i64:64-i128:128-f80:128-n8:16:32:64-S128"
target triple = "x86_64-unknown-linux-gnu"

%class.b3Vector3 = type { %union.anon.1 }
%union.anon.1 = type { [4 x float] }

; Function Attrs: mustprogress nounwind uwtable
define linkonce_odr dso_local void @_ZN9b3Vector38setValueERKfS1_S1_(ptr noundef nonnull align 16 dereferenceable(16) %this, ptr noundef nonnull align 4 dereferenceable(4) %_x, ptr noundef nonnull align 4 dereferenceable(4) %_y, ptr noundef nonnull align 4 dereferenceable(4) %_z) #3 comdat align 2 {
entry:
  %this.addr = alloca ptr, align 8
  %_x.addr = alloca ptr, align 8
  %_y.addr = alloca ptr, align 8
  %_z.addr = alloca ptr, align 8
  store ptr %this, ptr %this.addr, align 8
  store ptr %_x, ptr %_x.addr, align 8
  store ptr %_y, ptr %_y.addr, align 8
  store ptr %_z, ptr %_z.addr, align 8
  %this1 = load ptr, ptr %this.addr, align 8
  %0 = load ptr, ptr %_x.addr, align 8
  %1 = load float, ptr %0, align 4
  %2 = getelementptr inbounds %class.b3Vector3, ptr %this1, i32 0, i32 0
  %arrayidx = getelementptr inbounds [4 x float], ptr %2, i64 0, i64 0
  store float %1, ptr %arrayidx, align 16
  %3 = load ptr, ptr %_y.addr, align 8
  %4 = load float, ptr %3, align 4
  %5 = getelementptr inbounds %class.b3Vector3, ptr %this1, i32 0, i32 0
  %arrayidx2 = getelementptr inbounds [4 x float], ptr %5, i64 0, i64 1
  store float %4, ptr %arrayidx2, align 4
  %6 = load ptr, ptr %_z.addr, align 8
  %7 = load float, ptr %6, align 4
  %8 = getelementptr inbounds %class.b3Vector3, ptr %this1, i32 0, i32 0
  %arrayidx3 = getelementptr inbounds [4 x float], ptr %8, i64 0, i64 2
  store float %7, ptr %arrayidx3, align 8
  %9 = getelementptr inbounds %class.b3Vector3, ptr %this1, i32 0, i32 0
  %arrayidx4 = getelementptr inbounds [4 x float], ptr %9, i64 0, i64 3
  store float 0.000000e+00, ptr %arrayidx4, align 4
  ret void
}

; Function Attrs: mustprogress uwtable
define linkonce_odr dso_local { <2 x float>, <2 x float> } @_Z13b3MakeVector3fff(float noundef %x, float noundef %y, float noundef %z) #0 comdat {
entry:
  %retval = alloca %class.b3Vector3, align 16
  %x.addr = alloca float, align 4
  %y.addr = alloca float, align 4
  %z.addr = alloca float, align 4
  store float %x, ptr %x.addr, align 4
  store float %y, ptr %y.addr, align 4
  store float %z, ptr %z.addr, align 4
  call void @_ZN9b3Vector38setValueERKfS1_S1_(ptr noundef nonnull align 16 dereferenceable(16) %retval, ptr noundef nonnull align 4 dereferenceable(4) %x.addr, ptr noundef nonnull align 4 dereferenceable(4) %y.addr, ptr noundef nonnull align 4 dereferenceable(4) %z.addr)
  %coerce.dive = getelementptr inbounds %class.b3Vector3, ptr %retval, i32 0, i32 0
  %coerce.dive1 = getelementptr inbounds %union.anon.1, ptr %coerce.dive, i32 0, i32 0
  %0 = load { <2 x float>, <2 x float> }, ptr %coerce.dive1, align 16
  ret { <2 x float>, <2 x float> } %0
}

; Function Attrs: mustprogress uwtable
define linkonce_odr dso_local { <2 x float>, <2 x float> } @_ZmlRK9b3Vector3RKf(ptr noundef nonnull align 16 dereferenceable(16) %v, ptr noundef nonnull align 4 dereferenceable(4) %s) #2 comdat {
entry:
  %retval = alloca %class.b3Vector3, align 16
  %v.addr = alloca ptr, align 8
  %s.addr = alloca ptr, align 8
  store ptr %v, ptr %v.addr, align 8
  store ptr %s, ptr %s.addr, align 8
  %0 = load ptr, ptr %v.addr, align 8
  %1 = getelementptr inbounds %class.b3Vector3, ptr %0, i32 0, i32 0
  %arrayidx = getelementptr inbounds [4 x float], ptr %1, i64 0, i64 0
  %2 = load float, ptr %arrayidx, align 16
  %3 = load ptr, ptr %s.addr, align 8
  %4 = load float, ptr %3, align 4
  %mul = fmul float %2, %4
  %5 = load ptr, ptr %v.addr, align 8
  %6 = getelementptr inbounds %class.b3Vector3, ptr %5, i32 0, i32 0
  %arrayidx1 = getelementptr inbounds [4 x float], ptr %6, i64 0, i64 1
  %7 = load float, ptr %arrayidx1, align 4
  %8 = load ptr, ptr %s.addr, align 8
  %9 = load float, ptr %8, align 4
  %mul2 = fmul float %7, %9
  %10 = load ptr, ptr %v.addr, align 8
  %11 = getelementptr inbounds %class.b3Vector3, ptr %10, i32 0, i32 0
  %arrayidx3 = getelementptr inbounds [4 x float], ptr %11, i64 0, i64 2
  %12 = load float, ptr %arrayidx3, align 8
  %13 = load ptr, ptr %s.addr, align 8
  %14 = load float, ptr %13, align 4
  %mul4 = fmul float %12, %14
  %call = call { <2 x float>, <2 x float> } @_Z13b3MakeVector3fff(float noundef %mul, float noundef %mul2, float noundef %mul4)
  %coerce.dive = getelementptr inbounds %class.b3Vector3, ptr %retval, i32 0, i32 0
  %coerce.dive5 = getelementptr inbounds %union.anon.1, ptr %coerce.dive, i32 0, i32 0
  %15 = getelementptr inbounds { <2 x float>, <2 x float> }, ptr %coerce.dive5, i32 0, i32 0
  %16 = extractvalue { <2 x float>, <2 x float> } %call, 0
  store <2 x float> %16, ptr %15, align 16
  %17 = getelementptr inbounds { <2 x float>, <2 x float> }, ptr %coerce.dive5, i32 0, i32 1
  %18 = extractvalue { <2 x float>, <2 x float> } %call, 1
  store <2 x float> %18, ptr %17, align 8
  %coerce.dive6 = getelementptr inbounds %class.b3Vector3, ptr %retval, i32 0, i32 0
  %coerce.dive7 = getelementptr inbounds %union.anon.1, ptr %coerce.dive6, i32 0, i32 0
  %19 = load { <2 x float>, <2 x float> }, ptr %coerce.dive7, align 16
  ret { <2 x float>, <2 x float> } %19
}

; Function Attrs: mustprogress nounwind uwtable
define linkonce_odr dso_local noundef float @_ZNK9b3Vector33dotERKS_(ptr noundef nonnull align 16 dereferenceable(16) %this, ptr noundef nonnull align 16 dereferenceable(16) %v) #3 comdat align 2 {
entry:
  %this.addr = alloca ptr, align 8
  %v.addr = alloca ptr, align 8
  store ptr %this, ptr %this.addr, align 8
  store ptr %v, ptr %v.addr, align 8
  %this1 = load ptr, ptr %this.addr, align 8
  %0 = getelementptr inbounds %class.b3Vector3, ptr %this1, i32 0, i32 0
  %arrayidx = getelementptr inbounds [4 x float], ptr %0, i64 0, i64 0
  %1 = load float, ptr %arrayidx, align 16
  %2 = load ptr, ptr %v.addr, align 8
  %3 = getelementptr inbounds %class.b3Vector3, ptr %2, i32 0, i32 0
  %arrayidx2 = getelementptr inbounds [4 x float], ptr %3, i64 0, i64 0
  %4 = load float, ptr %arrayidx2, align 16
  %5 = getelementptr inbounds %class.b3Vector3, ptr %this1, i32 0, i32 0
  %arrayidx3 = getelementptr inbounds [4 x float], ptr %5, i64 0, i64 1
  %6 = load float, ptr %arrayidx3, align 4
  %7 = load ptr, ptr %v.addr, align 8
  %8 = getelementptr inbounds %class.b3Vector3, ptr %7, i32 0, i32 0
  %arrayidx4 = getelementptr inbounds [4 x float], ptr %8, i64 0, i64 1
  %9 = load float, ptr %arrayidx4, align 4
  %mul5 = fmul float %6, %9
  %10 = call float @llvm.fmuladd.f32(float %1, float %4, float %mul5)
  %11 = getelementptr inbounds %class.b3Vector3, ptr %this1, i32 0, i32 0
  %arrayidx6 = getelementptr inbounds [4 x float], ptr %11, i64 0, i64 2
  %12 = load float, ptr %arrayidx6, align 8
  %13 = load ptr, ptr %v.addr, align 8
  %14 = getelementptr inbounds %class.b3Vector3, ptr %13, i32 0, i32 0
  %arrayidx7 = getelementptr inbounds [4 x float], ptr %14, i64 0, i64 2
  %15 = load float, ptr %arrayidx7, align 8
  %16 = call float @llvm.fmuladd.f32(float %12, float %15, float %10)
  ret float %16
}

; Function Attrs: mustprogress uwtable
define linkonce_odr dso_local { <2 x float>, <2 x float> } @_ZmiRK9b3Vector3S1_(ptr noundef nonnull align 16 dereferenceable(16) %v1, ptr noundef nonnull align 16 dereferenceable(16) %v2) #2 comdat {
entry:
  %retval = alloca %class.b3Vector3, align 16
  %v1.addr = alloca ptr, align 8
  %v2.addr = alloca ptr, align 8
  store ptr %v1, ptr %v1.addr, align 8
  store ptr %v2, ptr %v2.addr, align 8
  %0 = load ptr, ptr %v1.addr, align 8
  %1 = getelementptr inbounds %class.b3Vector3, ptr %0, i32 0, i32 0
  %arrayidx = getelementptr inbounds [4 x float], ptr %1, i64 0, i64 0
  %2 = load float, ptr %arrayidx, align 16
  %3 = load ptr, ptr %v2.addr, align 8
  %4 = getelementptr inbounds %class.b3Vector3, ptr %3, i32 0, i32 0
  %arrayidx1 = getelementptr inbounds [4 x float], ptr %4, i64 0, i64 0
  %5 = load float, ptr %arrayidx1, align 16
  %sub = fsub float %2, %5
  %6 = load ptr, ptr %v1.addr, align 8
  %7 = getelementptr inbounds %class.b3Vector3, ptr %6, i32 0, i32 0
  %arrayidx2 = getelementptr inbounds [4 x float], ptr %7, i64 0, i64 1
  %8 = load float, ptr %arrayidx2, align 4
  %9 = load ptr, ptr %v2.addr, align 8
  %10 = getelementptr inbounds %class.b3Vector3, ptr %9, i32 0, i32 0
  %arrayidx3 = getelementptr inbounds [4 x float], ptr %10, i64 0, i64 1
  %11 = load float, ptr %arrayidx3, align 4
  %sub4 = fsub float %8, %11
  %12 = load ptr, ptr %v1.addr, align 8
  %13 = getelementptr inbounds %class.b3Vector3, ptr %12, i32 0, i32 0
  %arrayidx5 = getelementptr inbounds [4 x float], ptr %13, i64 0, i64 2
  %14 = load float, ptr %arrayidx5, align 8
  %15 = load ptr, ptr %v2.addr, align 8
  %16 = getelementptr inbounds %class.b3Vector3, ptr %15, i32 0, i32 0
  %arrayidx6 = getelementptr inbounds [4 x float], ptr %16, i64 0, i64 2
  %17 = load float, ptr %arrayidx6, align 8
  %sub7 = fsub float %14, %17
  %call = call { <2 x float>, <2 x float> } @_Z13b3MakeVector3fff(float noundef %sub, float noundef %sub4, float noundef %sub7)
  %coerce.dive = getelementptr inbounds %class.b3Vector3, ptr %retval, i32 0, i32 0
  %coerce.dive8 = getelementptr inbounds %union.anon.1, ptr %coerce.dive, i32 0, i32 0
  %18 = getelementptr inbounds { <2 x float>, <2 x float> }, ptr %coerce.dive8, i32 0, i32 0
  %19 = extractvalue { <2 x float>, <2 x float> } %call, 0
  store <2 x float> %19, ptr %18, align 16
  %20 = getelementptr inbounds { <2 x float>, <2 x float> }, ptr %coerce.dive8, i32 0, i32 1
  %21 = extractvalue { <2 x float>, <2 x float> } %call, 1
  store <2 x float> %21, ptr %20, align 8
  %coerce.dive9 = getelementptr inbounds %class.b3Vector3, ptr %retval, i32 0, i32 0
  %coerce.dive10 = getelementptr inbounds %union.anon.1, ptr %coerce.dive9, i32 0, i32 0
  %22 = load { <2 x float>, <2 x float> }, ptr %coerce.dive10, align 16
  ret { <2 x float>, <2 x float> } %22
}

; Function Attrs: mustprogress uwtable
define linkonce_odr dso_local { <2 x float>, <2 x float> } @_ZmlRKfRK9b3Vector3(ptr noundef nonnull align 4 dereferenceable(4) %s, ptr noundef nonnull align 16 dereferenceable(16) %v) #2 comdat {
entry:
  %retval = alloca %class.b3Vector3, align 16
  %s.addr = alloca ptr, align 8
  %v.addr = alloca ptr, align 8
  store ptr %s, ptr %s.addr, align 8
  store ptr %v, ptr %v.addr, align 8
  %0 = load ptr, ptr %v.addr, align 8
  %1 = load ptr, ptr %s.addr, align 8
  %call = call { <2 x float>, <2 x float> } @_ZmlRK9b3Vector3RKf(ptr noundef nonnull align 16 dereferenceable(16) %0, ptr noundef nonnull align 4 dereferenceable(4) %1)
  %coerce.dive = getelementptr inbounds %class.b3Vector3, ptr %retval, i32 0, i32 0
  %coerce.dive1 = getelementptr inbounds %union.anon.1, ptr %coerce.dive, i32 0, i32 0
  %2 = getelementptr inbounds { <2 x float>, <2 x float> }, ptr %coerce.dive1, i32 0, i32 0
  %3 = extractvalue { <2 x float>, <2 x float> } %call, 0
  store <2 x float> %3, ptr %2, align 16
  %4 = getelementptr inbounds { <2 x float>, <2 x float> }, ptr %coerce.dive1, i32 0, i32 1
  %5 = extractvalue { <2 x float>, <2 x float> } %call, 1
  store <2 x float> %5, ptr %4, align 8
  %coerce.dive2 = getelementptr inbounds %class.b3Vector3, ptr %retval, i32 0, i32 0
  %coerce.dive3 = getelementptr inbounds %union.anon.1, ptr %coerce.dive2, i32 0, i32 0
  %6 = load { <2 x float>, <2 x float> }, ptr %coerce.dive3, align 16
  ret { <2 x float>, <2 x float> } %6
}

; Function Attrs: mustprogress nounwind uwtable
define linkonce_odr dso_local noundef ptr @_ZNK9b3Vector3cvPKfEv(ptr noundef nonnull align 16 dereferenceable(16) %this) #3 comdat align 2 {
entry:
  %this.addr = alloca ptr, align 8
  store ptr %this, ptr %this.addr, align 8
  %this1 = load ptr, ptr %this.addr, align 8
  %0 = getelementptr inbounds %class.b3Vector3, ptr %this1, i32 0, i32 0
  %arrayidx = getelementptr inbounds [4 x float], ptr %0, i64 0, i64 0
  ret ptr %arrayidx
}

; Function Attrs: mustprogress uwtable
define linkonce_odr dso_local noundef float @_Z5b3DotRK9b3Vector3S1_(ptr noundef nonnull align 16 dereferenceable(16) %v1, ptr noundef nonnull align 16 dereferenceable(16) %v2) #0 comdat {
entry:
  %v1.addr = alloca ptr, align 8
  %v2.addr = alloca ptr, align 8
  store ptr %v1, ptr %v1.addr, align 8
  store ptr %v2, ptr %v2.addr, align 8
  %0 = load ptr, ptr %v1.addr, align 8
  %1 = load ptr, ptr %v2.addr, align 8
  %call = call noundef float @_ZNK9b3Vector33dotERKS_(ptr noundef nonnull align 16 dereferenceable(16) %0, ptr noundef nonnull align 16 dereferenceable(16) %1)
  ret float %call
}

; Function Attrs: mustprogress nounwind uwtable
define linkonce_odr dso_local noundef ptr @_ZN9b3Vector3cvPfEv(ptr noundef nonnull align 16 dereferenceable(16) %this) #3 comdat align 2 {
entry:
  %this.addr = alloca ptr, align 8
  store ptr %this, ptr %this.addr, align 8
  %this1 = load ptr, ptr %this.addr, align 8
  %0 = getelementptr inbounds %class.b3Vector3, ptr %this1, i32 0, i32 0
  %arrayidx = getelementptr inbounds [4 x float], ptr %0, i64 0, i64 0
  ret ptr %arrayidx
}

; Function Attrs: mustprogress uwtable
define dso_local noundef float @_Z30signedDistanceFromPointToPlaneRK9b3Vector3S1_PS_(ptr noundef nonnull align 16 dereferenceable(16) %point, ptr noundef nonnull align 16 dereferenceable(16) %planeEqn, ptr noundef %closestPointOnFace) #2 {
entry:
  %point.addr = alloca ptr, align 8
  %planeEqn.addr = alloca ptr, align 8
  %closestPointOnFace.addr = alloca ptr, align 8
  %n = alloca %class.b3Vector3, align 16
  %dist = alloca float, align 4
  %ref.tmp = alloca %class.b3Vector3, align 16
  %ref.tmp4 = alloca %class.b3Vector3, align 16
  store ptr %point, ptr %point.addr, align 8
  store ptr %planeEqn, ptr %planeEqn.addr, align 8
  store ptr %closestPointOnFace, ptr %closestPointOnFace.addr, align 8
  %0 = load ptr, ptr %planeEqn.addr, align 8
  call void @llvm.memcpy.p0.p0.i64(ptr align 16 %n, ptr align 16 %0, i64 16, i1 false)
  %call = call noundef ptr @_ZN9b3Vector3cvPfEv(ptr noundef nonnull align 16 dereferenceable(16) %n)
  %arrayidx = getelementptr inbounds float, ptr %call, i64 3
  store float 0.000000e+00, ptr %arrayidx, align 4
  %1 = load ptr, ptr %point.addr, align 8
  %call1 = call noundef float @_Z5b3DotRK9b3Vector3S1_(ptr noundef nonnull align 16 dereferenceable(16) %n, ptr noundef nonnull align 16 dereferenceable(16) %1)
  %2 = load ptr, ptr %planeEqn.addr, align 8
  %call2 = call noundef ptr @_ZNK9b3Vector3cvPKfEv(ptr noundef nonnull align 16 dereferenceable(16) %2)
  %arrayidx3 = getelementptr inbounds float, ptr %call2, i64 3
  %3 = load float, ptr %arrayidx3, align 4
  %add = fadd float %call1, %3
  store float %add, ptr %dist, align 4
  %4 = load ptr, ptr %point.addr, align 8
  %call5 = call { <2 x float>, <2 x float> } @_ZmlRKfRK9b3Vector3(ptr noundef nonnull align 4 dereferenceable(4) %dist, ptr noundef nonnull align 16 dereferenceable(16) %n)
  %coerce.dive = getelementptr inbounds %class.b3Vector3, ptr %ref.tmp4, i32 0, i32 0
  %coerce.dive6 = getelementptr inbounds %union.anon.1, ptr %coerce.dive, i32 0, i32 0
  %5 = getelementptr inbounds { <2 x float>, <2 x float> }, ptr %coerce.dive6, i32 0, i32 0
  %6 = extractvalue { <2 x float>, <2 x float> } %call5, 0
  store <2 x float> %6, ptr %5, align 16
  %7 = getelementptr inbounds { <2 x float>, <2 x float> }, ptr %coerce.dive6, i32 0, i32 1
  %8 = extractvalue { <2 x float>, <2 x float> } %call5, 1
  store <2 x float> %8, ptr %7, align 8
  %call7 = call { <2 x float>, <2 x float> } @_ZmiRK9b3Vector3S1_(ptr noundef nonnull align 16 dereferenceable(16) %4, ptr noundef nonnull align 16 dereferenceable(16) %ref.tmp4)
  %coerce.dive8 = getelementptr inbounds %class.b3Vector3, ptr %ref.tmp, i32 0, i32 0
  %coerce.dive9 = getelementptr inbounds %union.anon.1, ptr %coerce.dive8, i32 0, i32 0
  %9 = getelementptr inbounds { <2 x float>, <2 x float> }, ptr %coerce.dive9, i32 0, i32 0
  %10 = extractvalue { <2 x float>, <2 x float> } %call7, 0
  store <2 x float> %10, ptr %9, align 16
  %11 = getelementptr inbounds { <2 x float>, <2 x float> }, ptr %coerce.dive9, i32 0, i32 1
  %12 = extractvalue { <2 x float>, <2 x float> } %call7, 1
  store <2 x float> %12, ptr %11, align 8
  %13 = load ptr, ptr %closestPointOnFace.addr, align 8
  call void @llvm.memcpy.p0.p0.i64(ptr align 16 %13, ptr align 16 %ref.tmp, i64 16, i1 false)
  %14 = load float, ptr %dist, align 4
  ret float %14
}