; Function Attrs: mustprogress nofree norecurse nosync nounwind willreturn memory(argmem: readwrite) uwtable
define dso_local noundef float @_Z30signedDistanceFromPointToPlaneRK9b3Vector3S1_PS_(ptr nocapture noundef nonnull readonly align 16 dereferenceable(16) %point, ptr nocapture noundef nonnull readonly align 16 dereferenceable(16) %planeEqn, ptr nocapture noundef writeonly %closestPointOnFace) local_unnamed_addr #12 {
entry:
  %n.sroa.5.0.planeEqn.sroa_idx = getelementptr inbounds i8, ptr %planeEqn, i64 8
  %n.sroa.5.0.copyload = load float, ptr %n.sroa.5.0.planeEqn.sroa_idx, align 8
  %n.sroa.7.0.planeEqn.sroa_idx = getelementptr inbounds i8, ptr %planeEqn, i64 12
  %arrayidx7.i.i = getelementptr inbounds i8, ptr %point, i64 8
  %0 = load float, ptr %arrayidx7.i.i, align 8
  %1 = load float, ptr %n.sroa.7.0.planeEqn.sroa_idx, align 4
  %2 = load <2 x float>, ptr %planeEqn, align 16
  %3 = load <2 x float>, ptr %point, align 16
  %4 = fmul <2 x float> %2, %3
  %mul5.i.i = extractelement <2 x float> %4, i64 1
  %5 = extractelement <2 x float> %3, i64 0
  %6 = extractelement <2 x float> %2, i64 0
  %7 = tail call float @llvm.fmuladd.f32(float %6, float %5, float %mul5.i.i)
  %8 = tail call noundef float @llvm.fmuladd.f32(float %n.sroa.5.0.copyload, float %0, float %7)
  %add = fadd float %1, %8
  %9 = insertelement <2 x float> poison, float %add, i64 0
  %10 = shufflevector <2 x float> %9, <2 x float> poison, <2 x i32> zeroinitializer
  %11 = fmul <2 x float> %2, %10
  %mul4.i.i = fmul float %n.sroa.5.0.copyload, %add
  %12 = fsub <2 x float> %3, %11
  %sub7.i = fsub float %0, %mul4.i.i
  %retval.sroa.3.12.vec.insert.i.i = insertelement <2 x float> <float poison, float 0.000000e+00>, float %sub7.i, i64 0
  store <2 x float> %12, ptr %closestPointOnFace, align 16
  %ref.tmp.sroa.2.0..sroa_idx = getelementptr inbounds i8, ptr %closestPointOnFace, i64 8
  store <2 x float> %retval.sroa.3.12.vec.insert.i.i, ptr %ref.tmp.sroa.2.0..sroa_idx, align 8
  ret float %add
}